target datalayout = "e-m:e-p270:32:32-p271:32:32-p272:64:64-i64:64-i128:128-f80:128-n8:16:32:64-S128"
target triple = "x86_64-pc-linux-gnu"

%struct._object = type { %union.anon, ptr }
%union.anon = type { i64 }
%struct.stringio = type { %struct._object, ptr, i64, i64, i64, i32, ptr, i8, i8, i8, i8, ptr, ptr, ptr, ptr, ptr, ptr }

@PyExc_OverflowError = external global ptr, align 8
@.str.5 = private unnamed_addr constant [26 x i8] c"new buffer size too large\00", align 1

; Function Attrs: nounwind uwtable
define internal i32 @resize_buffer(ptr noundef %0, i64 noundef %1) #0 {
  %3 = alloca i32, align 4
  %4 = alloca ptr, align 8
  %5 = alloca i64, align 8
  %6 = alloca i64, align 8
  %7 = alloca ptr, align 8
  %8 = alloca i32, align 4
  store ptr %0, ptr %4, align 8, !tbaa !4
  store i64 %1, ptr %5, align 8, !tbaa !43
  call void @llvm.lifetime.start.p0(i64 8, ptr %6) #7
  %9 = load ptr, ptr %4, align 8, !tbaa !4
  %10 = getelementptr inbounds nuw %struct.stringio, ptr %9, i32 0, i32 4
  %11 = load i64, ptr %10, align 8, !tbaa !61
  store i64 %11, ptr %6, align 8, !tbaa !43
  call void @llvm.lifetime.start.p0(i64 8, ptr %7) #7
  store ptr null, ptr %7, align 8, !tbaa !54
  %12 = load i64, ptr %5, align 8, !tbaa !43
  %13 = add i64 %12, 1
  store i64 %13, ptr %5, align 8, !tbaa !43
  %14 = load i64, ptr %5, align 8, !tbaa !43
  %15 = icmp ugt i64 %14, 9223372036854775807
  br i1 %15, label %16, label %17

16:                                               ; preds = %2
  br label %74

17:                                               ; preds = %2
  %18 = load i64, ptr %5, align 8, !tbaa !43
  %19 = load i64, ptr %6, align 8, !tbaa !43
  %20 = udiv i64 %19, 2
  %21 = icmp ult i64 %18, %20
  br i1 %21, label %22, label %25

22:                                               ; preds = %17
  %23 = load i64, ptr %5, align 8, !tbaa !43
  %24 = add i64 %23, 1
  store i64 %24, ptr %6, align 8, !tbaa !43
  br label %52

25:                                               ; preds = %17
  %26 = load i64, ptr %5, align 8, !tbaa !43
  %27 = load i64, ptr %6, align 8, !tbaa !43
  %28 = icmp ult i64 %26, %27
  br i1 %28, label %29, label %30

29:                                               ; preds = %25
  store i32 0, ptr %3, align 4
  store i32 1, ptr %8, align 4
  br label %76

30:                                               ; preds = %25
  %31 = load i64, ptr %5, align 8, !tbaa !43
  %32 = uitofp i64 %31 to double
  %33 = load i64, ptr %6, align 8, !tbaa !43
  %34 = uitofp i64 %33 to double
  %35 = fmul double %34, 1.125000e+00
  %36 = fcmp ole double %32, %35
  br i1 %36, label %37, label %47

37:                                               ; preds = %30
  %38 = load i64, ptr %5, align 8, !tbaa !43
  %39 = load i64, ptr %5, align 8, !tbaa !43
  %40 = lshr i64 %39, 3
  %41 = add i64 %38, %40
  %42 = load i64, ptr %5, align 8, !tbaa !43
  %43 = icmp ult i64 %42, 9
  %44 = select i1 %43, i32 3, i32 6
  %45 = sext i32 %44 to i64
  %46 = add i64 %41, %45
  store i64 %46, ptr %6, align 8, !tbaa !43
  br label %50

47:                                               ; preds = %30
  %48 = load i64, ptr %5, align 8, !tbaa !43
  %49 = add i64 %48, 1
  store i64 %49, ptr %6, align 8, !tbaa !43
  br label %50

50:                                               ; preds = %47, %37
  br label %51

51:                                               ; preds = %50
  br label %52

52:                                               ; preds = %51, %22
  %53 = load i64, ptr %6, align 8, !tbaa !43
  %54 = icmp ugt i64 %53, 4611686018427387903
  br i1 %54, label %55, label %56

55:                                               ; preds = %52
  br label %74

56:                                               ; preds = %52
  %57 = load ptr, ptr %4, align 8, !tbaa !4
  %58 = getelementptr inbounds nuw %struct.stringio, ptr %57, i32 0, i32 1
  %59 = load ptr, ptr %58, align 8, !tbaa !19
  %60 = load i64, ptr %6, align 8, !tbaa !43
  %61 = mul i64 %60, 4
  %62 = call ptr @PyMem_Realloc(ptr noundef %59, i64 noundef %61)
  store ptr %62, ptr %7, align 8, !tbaa !54
  %63 = load ptr, ptr %7, align 8, !tbaa !54
  %64 = icmp eq ptr %63, null
  br i1 %64, label %65, label %67

65:                                               ; preds = %56
  %66 = call ptr @PyErr_NoMemory()
  store i32 -1, ptr %3, align 4
  store i32 1, ptr %8, align 4
  br label %76

67:                                               ; preds = %56
  %68 = load i64, ptr %6, align 8, !tbaa !43
  %69 = load ptr, ptr %4, align 8, !tbaa !4
  %70 = getelementptr inbounds nuw %struct.stringio, ptr %69, i32 0, i32 4
  store i64 %68, ptr %70, align 8, !tbaa !61
  %71 = load ptr, ptr %7, align 8, !tbaa !54
  %72 = load ptr, ptr %4, align 8, !tbaa !4
  %73 = getelementptr inbounds nuw %struct.stringio, ptr %72, i32 0, i32 1
  store ptr %71, ptr %73, align 8, !tbaa !19
  store i32 0, ptr %3, align 4
  store i32 1, ptr %8, align 4
  br label %76

74:                                               ; preds = %55, %16
  %75 = load ptr, ptr @PyExc_OverflowError, align 8, !tbaa !37
  call void @PyErr_SetString(ptr noundef %75, ptr noundef @.str.5)
  store i32 -1, ptr %3, align 4
  store i32 1, ptr %8, align 4
  br label %76

76:                                               ; preds = %74, %67, %65, %29
  call void @llvm.lifetime.end.p0(i64 8, ptr %7) #7
  call void @llvm.lifetime.end.p0(i64 8, ptr %6) #7
  %77 = load i32, ptr %3, align 4
  ret i32 %77
}