; Function Attrs: nounwind uwtable
define internal fastcc range(i32 -1, 1) i32 @resize_buffer(ptr noundef captures(none) %0, i64 noundef %1) unnamed_addr #0 {
  %3 = getelementptr inbounds nuw i8, ptr %0, i64 40
  %4 = load i64, ptr %3, align 8, !tbaa !61
  %5 = add i64 %1, 1
  %6 = icmp slt i64 %5, 0
  br i1 %6, label %38, label %7

7:                                                ; preds = %2
  %8 = lshr i64 %4, 1
  %9 = icmp samesign ult i64 %5, %8
  br i1 %9, label %10, label %12

10:                                               ; preds = %7
  %11 = add nsw i64 %1, 2
  br label %27

12:                                               ; preds = %7
  %13 = icmp ult i64 %5, %4
  br i1 %13, label %40, label %14

14:                                               ; preds = %12
  %15 = uitofp nneg i64 %5 to double
  %16 = uitofp nneg i64 %4 to double
  %17 = fmul double %16, 1.125000e+00
  %18 = fcmp ult double %17, %15
  br i1 %18, label %25, label %19

19:                                               ; preds = %14
  %20 = lshr i64 %5, 3
  %21 = add nuw i64 %20, %5
  %22 = icmp samesign ult i64 %5, 9
  %23 = select i1 %22, i64 3, i64 6
  %24 = add nuw i64 %21, %23
  br label %27

25:                                               ; preds = %14
  %26 = add i64 %1, 2
  br label %27

27:                                               ; preds = %25, %19, %10
  %.0 = phi i64 [ %11, %10 ], [ %24, %19 ], [ %26, %25 ]
  %28 = icmp ugt i64 %.0, 4611686018427387903
  br i1 %28, label %38, label %29

29:                                               ; preds = %27
  %30 = getelementptr inbounds nuw i8, ptr %0, i64 16
  %31 = load ptr, ptr %30, align 8, !tbaa !21
  %32 = shl nuw i64 %.0, 2
  %33 = tail call ptr @PyMem_Realloc(ptr noundef %31, i64 noundef %32) #6
  %34 = icmp eq ptr %33, null
  br i1 %34, label %35, label %37

35:                                               ; preds = %29
  %36 = tail call ptr @PyErr_NoMemory() #6
  br label %40

37:                                               ; preds = %29
  store i64 %.0, ptr %3, align 8, !tbaa !61
  store ptr %33, ptr %30, align 8, !tbaa !21
  br label %40

38:                                               ; preds = %27, %2
  %39 = load ptr, ptr @PyExc_OverflowError, align 8, !tbaa !37
  tail call void @PyErr_SetString(ptr noundef %39, ptr noundef nonnull @.str.5) #6
  br label %40

40:                                               ; preds = %12, %38, %37, %35
  %.022 = phi i32 [ -1, %38 ], [ -1, %35 ], [ 0, %37 ], [ 0, %12 ]
  ret i32 %.022
}